target datalayout = "e-m:e-p270:32:32-p271:32:32-p272:64:64-i64:64-i128:128-f80:128-n8:16:32:64-S128"
target triple = "x86_64-pc-linux-gnu"

%"class.llvm::StringRef" = type { ptr, i64 }
%"class.std::optional" = type { %"struct.std::_Optional_base" }
%"struct.std::_Optional_base" = type { %"struct.std::_Optional_payload" }
%"struct.std::_Optional_payload" = type { %"struct.std::_Optional_payload_base.base", [3 x i8] }
%"struct.std::_Optional_payload_base.base" = type <{ %"union.std::_Optional_payload_base<unsigned int>::_Storage", i8 }>
%"union.std::_Optional_payload_base<unsigned int>::_Storage" = type { i32 }
%"class.clang::targets::AArch64TargetInfo" = type { %"class.clang::TargetInfo.base", i32, i8, i8, i8, i8, i8, i8, i8, i8, i8, i8, i8, i8, i8, i8, i8, i8, i8, i8, i8, i8, i8, i8, i8, i8, i8, i8, i8, i8, i8, i8, i8, i8, i8, i8, i8, i8, i8, i8, i8, i8, i8, i8, i8, i8, i8, i8, i8, i8, i8, i8, i8, i8, i8, i8, i8, i8, i8, ptr, %"class.std::__cxx11::basic_string" }
%"class.clang::TargetInfo.base" = type <{ ptr, %"struct.clang::TransferrableTargetInfo.base", %"class.llvm::RefCountedBase", %"class.std::shared_ptr", %"class.llvm::Triple", i8, i8, i8, i8, i8, i8, i8, i8, i8, i8, i8, i8, i8, i8, i8, i8, %"class.std::__cxx11::basic_string", ptr, ptr, i8, i8, [2 x i8], %"class.clang::TargetCXXABI", ptr, %"class.llvm::StringRef", %"class.llvm::VersionTuple", i32, i32, %"class.std::optional", %"class.std::optional.0", %"class.llvm::StringSet", i8 }>
%"struct.clang::TransferrableTargetInfo.base" = type <{ i8, i8, i8, i8, i8, i8, i8, i8, i8, i8, i8, i8, i8, i8, i8, i8, i8, i8, i8, i8, i8, i8, i8, i8, i8, [3 x i8], %"class.std::optional", i8, i8, i8, i8, i8, i8, i8, i8, i8, i8, i8, i8, i8, i8, i8, i8, i8, i8, i16, i16, [2 x i8], i32, i32, [4 x i8], ptr, ptr, ptr, ptr, ptr, ptr, ptr, i32, i32, i32, i32, i32, i32, i32, i32, i32, i32, i32, i32, i8, [3 x i8], i32, i32 }>
%"class.llvm::RefCountedBase" = type { i32 }
%"class.std::shared_ptr" = type { %"class.std::__shared_ptr" }
%"class.std::__shared_ptr" = type { ptr, %"class.std::__shared_count" }
%"class.std::__shared_count" = type { ptr }
%"class.llvm::Triple" = type { %"class.std::__cxx11::basic_string", i32, i32, i32, i32, i32, i32 }
%"class.clang::TargetCXXABI" = type { i32 }
%"class.llvm::VersionTuple" = type { i64, i64 }
%"class.std::optional.0" = type { %"struct.std::_Optional_base.1" }
%"struct.std::_Optional_base.1" = type { %"struct.std::_Optional_payload.3" }
%"struct.std::_Optional_payload.3" = type { %"struct.std::_Optional_payload.base.7", [7 x i8] }
%"struct.std::_Optional_payload.base.7" = type { %"struct.std::_Optional_payload_base.base.6" }
%"struct.std::_Optional_payload_base.base.6" = type <{ %"union.std::_Optional_payload_base<llvm::Triple>::_Storage", i8 }>
%"union.std::_Optional_payload_base<llvm::Triple>::_Storage" = type { %"class.llvm::Triple" }
%"class.llvm::StringSet" = type { %"class.llvm::StringMap" }
%"class.llvm::StringMap" = type { %"class.llvm::StringMapImpl" }
%"class.llvm::StringMapImpl" = type { ptr, i32, i32, i32, i32 }
%"class.std::__cxx11::basic_string" = type { %"struct.std::__cxx11::basic_string<char>::_Alloc_hider", i64, %union.anon }
%"struct.std::__cxx11::basic_string<char>::_Alloc_hider" = type { ptr }
%union.anon = type { i64, [8 x i8] }
%"struct.clang::TransferrableTargetInfo" = type <{ i8, i8, i8, i8, i8, i8, i8, i8, i8, i8, i8, i8, i8, i8, i8, i8, i8, i8, i8, i8, i8, i8, i8, i8, i8, [3 x i8], %"class.std::optional", i8, i8, i8, i8, i8, i8, i8, i8, i8, i8, i8, i8, i8, i8, i8, i8, i8, i8, i16, i16, [2 x i8], i32, i32, [4 x i8], ptr, ptr, ptr, ptr, ptr, ptr, ptr, i32, i32, i32, i32, i32, i32, i32, i32, i32, i32, i32, i32, i8, [3 x i8], i32, i32, [4 x i8] }>
%"class.clang::TargetInfo" = type <{ ptr, %"struct.clang::TransferrableTargetInfo.base", %"class.llvm::RefCountedBase", %"class.std::shared_ptr", %"class.llvm::Triple", i8, i8, i8, i8, i8, i8, i8, i8, i8, i8, i8, i8, i8, i8, i8, i8, %"class.std::__cxx11::basic_string", ptr, ptr, i8, i8, [2 x i8], %"class.clang::TargetCXXABI", ptr, %"class.llvm::StringRef", %"class.llvm::VersionTuple", i32, i32, %"class.std::optional", %"class.std::optional.0", %"class.llvm::StringSet", i8, [7 x i8] }>
%"class.clang::targets::WindowsARM64TargetInfo" = type { %"class.clang::targets::WindowsTargetInfo", %"class.llvm::Triple" }
%"class.clang::targets::WindowsTargetInfo" = type { %"class.clang::targets::OSTargetInfo" }
%"class.clang::targets::OSTargetInfo" = type { %"class.clang::targets::AArch64leTargetInfo" }
%"class.clang::targets::AArch64leTargetInfo" = type { %"class.clang::targets::AArch64TargetInfo" }

; Function Attrs: mustprogress nounwind uwtable
define hidden void @_ZN5clang7targets19AArch64leTargetInfoC2ERKN4llvm6TripleERKNS_13TargetOptionsE(ptr noundef nonnull align 8 dereferenceable(600) %0, ptr noundef nonnull align 8 dereferenceable(56) %1, ptr noundef nonnull align 8 dereferenceable(536) %2) unnamed_addr #0 align 2 {
  %4 = alloca ptr, align 8
  %5 = alloca ptr, align 8
  %6 = alloca ptr, align 8
  store ptr %0, ptr %4, align 8
  store ptr %1, ptr %5, align 8
  store ptr %2, ptr %6, align 8
  %7 = load ptr, ptr %4, align 8
  %8 = load ptr, ptr %5, align 8
  %9 = load ptr, ptr %6, align 8
  call void @_ZN5clang7targets17AArch64TargetInfoC2ERKN4llvm6TripleERKNS_13TargetOptionsE(ptr noundef nonnull align 8 dereferenceable(600) %7, ptr noundef nonnull align 8 dereferenceable(56) %8, ptr noundef nonnull align 8 dereferenceable(536) %9)
  store ptr getelementptr inbounds inrange(-16, 976) ({ [124 x ptr] }, ptr @_ZTVN5clang7targets19AArch64leTargetInfoE, i32 0, i32 0, i32 2), ptr %7, align 8
  ret void
}

; Function Attrs: mustprogress nounwind uwtable
define linkonce_odr hidden void @_ZN5clang7targets12OSTargetInfoINS0_19AArch64leTargetInfoEEC2ERKN4llvm6TripleERKNS_13TargetOptionsE(ptr noundef nonnull align 8 dereferenceable(600) %0, ptr noundef nonnull align 8 dereferenceable(56) %1, ptr noundef nonnull align 8 dereferenceable(536) %2) unnamed_addr #0 comdat align 2 {
  %4 = alloca ptr, align 8
  %5 = alloca ptr, align 8
  %6 = alloca ptr, align 8
  store ptr %0, ptr %4, align 8
  store ptr %1, ptr %5, align 8
  store ptr %2, ptr %6, align 8
  %7 = load ptr, ptr %4, align 8
  %8 = load ptr, ptr %5, align 8
  %9 = load ptr, ptr %6, align 8
  call void @_ZN5clang7targets19AArch64leTargetInfoC2ERKN4llvm6TripleERKNS_13TargetOptionsE(ptr noundef nonnull align 8 dereferenceable(600) %7, ptr noundef nonnull align 8 dereferenceable(56) %8, ptr noundef nonnull align 8 dereferenceable(536) %9)
  store ptr getelementptr inbounds inrange(-16, 984) ({ [125 x ptr] }, ptr @_ZTVN5clang7targets12OSTargetInfoINS0_19AArch64leTargetInfoEEE, i32 0, i32 0, i32 2), ptr %7, align 8
  ret void
}

; Function Attrs: mustprogress nounwind uwtable
define linkonce_odr hidden void @_ZN4llvm6TripleC2ERKS0_(ptr noundef nonnull align 8 dereferenceable(56) %0, ptr noundef nonnull align 8 dereferenceable(56) %1) unnamed_addr #0 comdat align 2 {
  %3 = alloca ptr, align 8
  %4 = alloca ptr, align 8
  store ptr %0, ptr %3, align 8
  store ptr %1, ptr %4, align 8
  %5 = load ptr, ptr %3, align 8
  %6 = getelementptr inbounds nuw %"class.llvm::Triple", ptr %5, i32 0, i32 0
  %7 = load ptr, ptr %4, align 8
  %8 = getelementptr inbounds nuw %"class.llvm::Triple", ptr %7, i32 0, i32 0
  call void @_ZNSt7__cxx1112basic_stringIcSt11char_traitsIcESaIcEEC1ERKS4_(ptr noundef nonnull align 8 dereferenceable(32) %6, ptr noundef nonnull align 8 dereferenceable(32) %8)
  %9 = getelementptr inbounds nuw %"class.llvm::Triple", ptr %5, i32 0, i32 1
  %10 = load ptr, ptr %4, align 8
  %11 = getelementptr inbounds nuw %"class.llvm::Triple", ptr %10, i32 0, i32 1
  call void @llvm.memcpy.p0.p0.i64(ptr align 8 %9, ptr align 8 %11, i64 24, i1 false)
  ret void
}

; Function Attrs: mustprogress nounwind uwtable
define linkonce_odr hidden void @_ZN5clang7targets17WindowsTargetInfoINS0_19AArch64leTargetInfoEEC2ERKN4llvm6TripleERKNS_13TargetOptionsE(ptr noundef nonnull align 8 dereferenceable(600) %0, ptr noundef nonnull align 8 dereferenceable(56) %1, ptr noundef nonnull align 8 dereferenceable(536) %2) unnamed_addr #0 comdat align 2 {
  %4 = alloca ptr, align 8
  %5 = alloca ptr, align 8
  %6 = alloca ptr, align 8
  store ptr %0, ptr %4, align 8
  store ptr %1, ptr %5, align 8
  store ptr %2, ptr %6, align 8
  %7 = load ptr, ptr %4, align 8
  %8 = load ptr, ptr %5, align 8
  %9 = load ptr, ptr %6, align 8
  call void @_ZN5clang7targets12OSTargetInfoINS0_19AArch64leTargetInfoEEC2ERKN4llvm6TripleERKNS_13TargetOptionsE(ptr noundef nonnull align 8 dereferenceable(600) %7, ptr noundef nonnull align 8 dereferenceable(56) %8, ptr noundef nonnull align 8 dereferenceable(536) %9)
  store ptr getelementptr inbounds inrange(-16, 984) ({ [125 x ptr] }, ptr @_ZTVN5clang7targets17WindowsTargetInfoINS0_19AArch64leTargetInfoEEE, i32 0, i32 0, i32 2), ptr %7, align 8
  %10 = getelementptr inbounds i8, ptr %7, i64 8
  %11 = getelementptr inbounds nuw %"struct.clang::TransferrableTargetInfo", ptr %10, i32 0, i32 62
  store i32 4, ptr %11, align 8
  %12 = getelementptr inbounds i8, ptr %7, i64 8
  %13 = getelementptr inbounds nuw %"struct.clang::TransferrableTargetInfo", ptr %12, i32 0, i32 63
  store i32 4, ptr %13, align 4
  ret void
}

; Function Attrs: mustprogress nounwind uwtable
define linkonce_odr hidden void @_ZN5clang12TargetCXXABI3setENS0_4KindE(ptr noundef nonnull align 4 dereferenceable(4) %0, i32 noundef %1) #0 comdat align 2 {
  %3 = alloca ptr, align 8
  %4 = alloca i32, align 4
  store ptr %0, ptr %3, align 8
  store i32 %1, ptr %4, align 4
  %5 = load ptr, ptr %3, align 8
  %6 = load i32, ptr %4, align 4
  %7 = getelementptr inbounds nuw %"class.clang::TargetCXXABI", ptr %5, i32 0, i32 0
  store i32 %6, ptr %7, align 4
  ret void
}

; Function Attrs: mustprogress nounwind uwtable
define hidden void @_ZN5clang7targets22WindowsARM64TargetInfoC2ERKN4llvm6TripleERKNS_13TargetOptionsE(ptr noundef nonnull align 8 dereferenceable(656) %0, ptr noundef nonnull align 8 dereferenceable(56) %1, ptr noundef nonnull align 8 dereferenceable(536) %2) unnamed_addr #0 align 2 {
  %4 = alloca ptr, align 8
  %5 = alloca ptr, align 8
  %6 = alloca ptr, align 8
  store ptr %0, ptr %4, align 8
  store ptr %1, ptr %5, align 8
  store ptr %2, ptr %6, align 8
  %7 = load ptr, ptr %4, align 8
  %8 = load ptr, ptr %5, align 8
  %9 = load ptr, ptr %6, align 8
  call void @_ZN5clang7targets17WindowsTargetInfoINS0_19AArch64leTargetInfoEEC2ERKN4llvm6TripleERKNS_13TargetOptionsE(ptr noundef nonnull align 8 dereferenceable(600) %7, ptr noundef nonnull align 8 dereferenceable(56) %8, ptr noundef nonnull align 8 dereferenceable(536) %9)
  store ptr getelementptr inbounds inrange(-16, 984) ({ [125 x ptr] }, ptr @_ZTVN5clang7targets22WindowsARM64TargetInfoE, i32 0, i32 0, i32 2), ptr %7, align 8
  %10 = getelementptr inbounds nuw %"class.clang::targets::WindowsARM64TargetInfo", ptr %7, i32 0, i32 1
  %11 = load ptr, ptr %5, align 8
  call void @_ZN4llvm6TripleC2ERKS0_(ptr noundef nonnull align 8 dereferenceable(56) %10, ptr noundef nonnull align 8 dereferenceable(56) %11)
  %12 = getelementptr inbounds i8, ptr %7, i64 8
  %13 = getelementptr inbounds nuw %"struct.clang::TransferrableTargetInfo", ptr %12, i32 0, i32 5
  store i8 32, ptr %13, align 1
  %14 = getelementptr inbounds i8, ptr %7, i64 8
  %15 = getelementptr inbounds nuw %"struct.clang::TransferrableTargetInfo", ptr %14, i32 0, i32 4
  store i8 32, ptr %15, align 4
  %16 = getelementptr inbounds i8, ptr %7, i64 8
  %17 = getelementptr inbounds nuw %"struct.clang::TransferrableTargetInfo", ptr %16, i32 0, i32 21
  store i8 32, ptr %17, align 1
  %18 = getelementptr inbounds i8, ptr %7, i64 8
  %19 = getelementptr inbounds nuw %"struct.clang::TransferrableTargetInfo", ptr %18, i32 0, i32 20
  store i8 32, ptr %19, align 4
  %20 = getelementptr inbounds i8, ptr %7, i64 8
  %21 = getelementptr inbounds nuw %"struct.clang::TransferrableTargetInfo", ptr %20, i32 0, i32 23
  store i8 64, ptr %21, align 1
  %22 = getelementptr inbounds i8, ptr %7, i64 8
  %23 = getelementptr inbounds nuw %"struct.clang::TransferrableTargetInfo", ptr %22, i32 0, i32 13
  store i8 64, ptr %23, align 1
  %24 = getelementptr inbounds i8, ptr %7, i64 8
  %25 = getelementptr inbounds nuw %"struct.clang::TransferrableTargetInfo", ptr %24, i32 0, i32 15
  store i8 64, ptr %25, align 1
  %26 = getelementptr inbounds i8, ptr %7, i64 8
  %27 = getelementptr inbounds nuw %"struct.clang::TransferrableTargetInfo", ptr %26, i32 0, i32 14
  store i8 64, ptr %27, align 2
  %28 = call noundef nonnull align 1 ptr @_ZN4llvm11APFloatBase10IEEEdoubleEv() #12
  %29 = getelementptr inbounds i8, ptr %7, i64 8
  %30 = getelementptr inbounds nuw %"struct.clang::TransferrableTargetInfo", ptr %29, i32 0, i32 55
  store ptr %28, ptr %30, align 8
  %31 = getelementptr inbounds i8, ptr %7, i64 8
  %32 = getelementptr inbounds nuw %"struct.clang::TransferrableTargetInfo", ptr %31, i32 0, i32 59
  store i32 9, ptr %32, align 4
  %33 = getelementptr inbounds i8, ptr %7, i64 8
  %34 = getelementptr inbounds nuw %"struct.clang::TransferrableTargetInfo", ptr %33, i32 0, i32 66
  store i32 9, ptr %34, align 8
  %35 = getelementptr inbounds i8, ptr %7, i64 8
  %36 = getelementptr inbounds nuw %"struct.clang::TransferrableTargetInfo", ptr %35, i32 0, i32 58
  store i32 10, ptr %36, align 8
  %37 = getelementptr inbounds i8, ptr %7, i64 8
  %38 = getelementptr inbounds nuw %"struct.clang::TransferrableTargetInfo", ptr %37, i32 0, i32 60
  store i32 9, ptr %38, align 8
  %39 = getelementptr inbounds i8, ptr %7, i64 8
  %40 = getelementptr inbounds nuw %"struct.clang::TransferrableTargetInfo", ptr %39, i32 0, i32 61
  store i32 9, ptr %40, align 4
  ret void
}

; Function Attrs: mustprogress nounwind uwtable
define hidden void @_ZN5clang7targets24MicrosoftARM64TargetInfoC2ERKN4llvm6TripleERKNS_13TargetOptionsE(ptr noundef nonnull align 8 dereferenceable(656) %0, ptr noundef nonnull align 8 dereferenceable(56) %1, ptr noundef nonnull align 8 dereferenceable(536) %2) unnamed_addr #0 align 2 {
  %4 = alloca ptr, align 8
  %5 = alloca ptr, align 8
  %6 = alloca ptr, align 8
  store ptr %0, ptr %4, align 8
  store ptr %1, ptr %5, align 8
  store ptr %2, ptr %6, align 8
  %7 = load ptr, ptr %4, align 8
  %8 = load ptr, ptr %5, align 8
  %9 = load ptr, ptr %6, align 8
  call void @_ZN5clang7targets22WindowsARM64TargetInfoC2ERKN4llvm6TripleERKNS_13TargetOptionsE(ptr noundef nonnull align 8 dereferenceable(656) %7, ptr noundef nonnull align 8 dereferenceable(56) %8, ptr noundef nonnull align 8 dereferenceable(536) %9)
  store ptr getelementptr inbounds inrange(-16, 984) ({ [125 x ptr] }, ptr @_ZTVN5clang7targets24MicrosoftARM64TargetInfoE, i32 0, i32 0, i32 2), ptr %7, align 8
  %10 = getelementptr inbounds nuw %"class.clang::TargetInfo", ptr %7, i32 0, i32 27
  call void @_ZN5clang12TargetCXXABI3setENS0_4KindE(ptr noundef nonnull align 4 dereferenceable(4) %10, i32 noundef 10)
  ret void
}