; Function Attrs: mustprogress nounwind uwtable
define hidden void @_ZN5clang7targets24MicrosoftARM64TargetInfoC2ERKN4llvm6TripleERKNS_13TargetOptionsE(ptr noundef nonnull align 8 dereferenceable(656) %0, ptr noundef nonnull align 8 dereferenceable(56) %1, ptr noundef nonnull readonly align 8 captures(none) dereferenceable(536) %2) unnamed_addr #1 align 2 {
  tail call void @_ZN5clang7targets17AArch64TargetInfoC2ERKN4llvm6TripleERKNS_13TargetOptionsE(ptr noundef nonnull align 8 dereferenceable(656) %0, ptr noundef nonnull align 8 dereferenceable(56) %1, ptr noundef nonnull readonly align 8 dereferenceable(536) %2)
  %4 = getelementptr inbounds nuw i8, ptr %0, i64 152
  store i32 4, ptr %4, align 8
  %5 = getelementptr inbounds nuw i8, ptr %0, i64 156
  store i32 4, ptr %5, align 4
  store ptr getelementptr inbounds nuw inrange(-16, 984) (i8, ptr @_ZTVN5clang7targets22WindowsARM64TargetInfoE, i64 16), ptr %0, align 8
  %6 = getelementptr inbounds nuw i8, ptr %0, i64 600
  tail call void @_ZNSt7__cxx1112basic_stringIcSt11char_traitsIcESaIcEEC1ERKS4_(ptr noundef nonnull align 8 dereferenceable(56) %6, ptr noundef nonnull align 8 dereferenceable(56) %1) #23
  %7 = getelementptr inbounds nuw i8, ptr %0, i64 632
  %8 = getelementptr inbounds nuw i8, ptr %1, i64 32
  tail call void @llvm.memcpy.p0.p0.i64(ptr noundef nonnull align 8 dereferenceable(24) %7, ptr noundef nonnull align 8 dereferenceable(24) %8, i64 24, i1 false)
  %9 = getelementptr inbounds nuw i8, ptr %0, i64 13
  store i8 32, ptr %9, align 1
  %10 = getelementptr inbounds nuw i8, ptr %0, i64 12
  store i8 32, ptr %10, align 4
  %11 = getelementptr inbounds nuw i8, ptr %0, i64 29
  store i8 32, ptr %11, align 1
  %12 = getelementptr inbounds nuw i8, ptr %0, i64 28
  store i8 32, ptr %12, align 4
  %13 = getelementptr inbounds nuw i8, ptr %0, i64 31
  store i8 64, ptr %13, align 1
  %14 = getelementptr inbounds nuw i8, ptr %0, i64 21
  store i8 64, ptr %14, align 1
  %15 = getelementptr inbounds nuw i8, ptr %0, i64 23
  store i8 64, ptr %15, align 1
  %16 = getelementptr inbounds nuw i8, ptr %0, i64 22
  store i8 64, ptr %16, align 2
  %17 = tail call noundef nonnull align 1 ptr @_ZN4llvm11APFloatBase10IEEEdoubleEv() #24
  %18 = getelementptr inbounds nuw i8, ptr %0, i64 112
  store ptr %17, ptr %18, align 8
  %19 = getelementptr inbounds nuw i8, ptr %0, i64 140
  store i32 9, ptr %19, align 4
  %20 = getelementptr inbounds nuw i8, ptr %0, i64 168
  store i32 9, ptr %20, align 8
  %21 = getelementptr inbounds nuw i8, ptr %0, i64 136
  store i32 10, ptr %21, align 8
  %22 = getelementptr inbounds nuw i8, ptr %0, i64 144
  store i32 9, ptr %22, align 8
  %23 = getelementptr inbounds nuw i8, ptr %0, i64 148
  store i32 9, ptr %23, align 4
  store ptr getelementptr inbounds nuw inrange(-16, 984) (i8, ptr @_ZTVN5clang7targets24MicrosoftARM64TargetInfoE, i64 16), ptr %0, align 8
  %24 = getelementptr inbounds nuw i8, ptr %0, i64 340
  store i32 10, ptr %24, align 4
  ret void
}